; ModuleID = '49/920.c'
source_filename = "49/920.c"
target datalayout = "e-m:e-p270:32:32-p271:32:32-p272:64:64-i64:64-f80:128-n8:16:32:64-S128"
target triple = "x86_64-pc-linux-gnu"

; Function Attrs: noinline nounwind uwtable
define dso_local void @srev(i8* %0, i32 %1) #0 {
  %3 = alloca i8*, align 8
  %4 = alloca i32, align 4
  %5 = alloca [500 x i8], align 16
  %6 = alloca i32, align 4
  store i8* %0, i8** %3, align 8
  store i32 %1, i32* %4, align 4
  store i32 0, i32* %6, align 4
  br label %7

7:                                                ; preds = %26, %2
  %8 = load i32, i32* %6, align 4
  %9 = load i32, i32* %4, align 4
  %10 = icmp slt i32 %8, %9
  br i1 %10, label %11, label %29

11:                                               ; preds = %7
  %12 = load i8*, i8** %3, align 8
  %13 = load i32, i32* %4, align 4
  %14 = sext i32 %13 to i64
  %15 = getelementptr inbounds i8, i8* %12, i64 %14
  %16 = load i32, i32* %6, align 4
  %17 = sext i32 %16 to i64
  %18 = sub i64 0, %17
  %19 = getelementptr inbounds i8, i8* %15, i64 %18
  %20 = getelementptr inbounds i8, i8* %19, i64 -1
  %21 = load i8, i8* %20, align 1
  %22 = getelementptr inbounds [500 x i8], [500 x i8]* %5, i64 0, i64 0
  %23 = load i32, i32* %6, align 4
  %24 = sext i32 %23 to i64
  %25 = getelementptr inbounds i8, i8* %22, i64 %24
  store i8 %21, i8* %25, align 1
  br label %26

26:                                               ; preds = %11
  %27 = load i32, i32* %6, align 4
  %28 = add nsw i32 %27, 1
  store i32 %28, i32* %6, align 4
  br label %7

29:                                               ; preds = %7
  store i32 0, i32* %6, align 4
  br label %30

30:                                               ; preds = %44, %29
  %31 = load i32, i32* %6, align 4
  %32 = load i32, i32* %4, align 4
  %33 = icmp slt i32 %31, %32
  br i1 %33, label %34, label %47

34:                                               ; preds = %30
  %35 = getelementptr inbounds [500 x i8], [500 x i8]* %5, i64 0, i64 0
  %36 = load i32, i32* %6, align 4
  %37 = sext i32 %36 to i64
  %38 = getelementptr inbounds i8, i8* %35, i64 %37
  %39 = load i8, i8* %38, align 1
  %40 = load i8*, i8** %3, align 8
  %41 = load i32, i32* %6, align 4
  %42 = sext i32 %41 to i64
  %43 = getelementptr inbounds i8, i8* %40, i64 %42
  store i8 %39, i8* %43, align 1
  br label %44

44:                                               ; preds = %34
  %45 = load i32, i32* %6, align 4
  %46 = add nsw i32 %45, 1
  store i32 %46, i32* %6, align 4
  br label %30

47:                                               ; preds = %30
  ret void
}

; Function Attrs: noinline nounwind uwtable
define dso_local i32 @main() #0 {
  %1 = alloca i32, align 4
  %2 = alloca [500 x i8], align 16
  %3 = alloca [500 x i8], align 16
  %4 = alloca [500 x i8], align 16
  %5 = alloca i32, align 4
  %6 = alloca i32, align 4
  %7 = alloca i32, align 4
  store i32 0, i32* %1, align 4
  %8 = getelementptr inbounds [500 x i8], [500 x i8]* %2, i64 0, i64 0
  %9 = call i32 (i8*, ...) bitcast (i32 (...)* @gets to i32 (i8*, ...)*)(i8* %8)
  %10 = getelementptr inbounds [500 x i8], [500 x i8]* %2, i64 0, i64 0
  %11 = call i64 @strlen(i8* %10) #4
  %12 = trunc i64 %11 to i32
  store i32 %12, i32* %5, align 4
  store i32 2, i32* %6, align 4
  br label %13

13:                                               ; preds = %62, %0
  %14 = load i32, i32* %6, align 4
  %15 = load i32, i32* %5, align 4
  %16 = icmp slt i32 %14, %15
  br i1 %16, label %17, label %65

17:                                               ; preds = %13
  store i32 0, i32* %7, align 4
  br label %18

18:                                               ; preds = %58, %17
  %19 = load i32, i32* %7, align 4
  %20 = load i32, i32* %5, align 4
  %21 = load i32, i32* %6, align 4
  %22 = sub nsw i32 %20, %21
  %23 = add nsw i32 %22, 1
  %24 = icmp slt i32 %19, %23
  br i1 %24, label %25, label %61

25:                                               ; preds = %18
  %26 = getelementptr inbounds [500 x i8], [500 x i8]* %3, i64 0, i64 0
  %27 = getelementptr inbounds [500 x i8], [500 x i8]* %2, i64 0, i64 0
  %28 = load i32, i32* %7, align 4
  %29 = sext i32 %28 to i64
  %30 = getelementptr inbounds i8, i8* %27, i64 %29
  %31 = load i32, i32* %6, align 4
  %32 = sext i32 %31 to i64
  %33 = call i8* @strncpy(i8* %26, i8* %30, i64 %32) #5
  %34 = getelementptr inbounds [500 x i8], [500 x i8]* %4, i64 0, i64 0
  %35 = getelementptr inbounds [500 x i8], [500 x i8]* %2, i64 0, i64 0
  %36 = load i32, i32* %7, align 4
  %37 = sext i32 %36 to i64
  %38 = getelementptr inbounds i8, i8* %35, i64 %37
  %39 = load i32, i32* %6, align 4
  %40 = sext i32 %39 to i64
  %41 = call i8* @strncpy(i8* %34, i8* %38, i64 %40) #5
  %42 = load i32, i32* %6, align 4
  %43 = sext i32 %42 to i64
  %44 = getelementptr inbounds [500 x i8], [500 x i8]* %4, i64 0, i64 %43
  store i8 0, i8* %44, align 1
  %45 = load i32, i32* %6, align 4
  %46 = sext i32 %45 to i64
  %47 = getelementptr inbounds [500 x i8], [500 x i8]* %3, i64 0, i64 %46
  store i8 0, i8* %47, align 1
  %48 = getelementptr inbounds [500 x i8], [500 x i8]* %4, i64 0, i64 0
  %49 = load i32, i32* %6, align 4
  call void @srev(i8* %48, i32 %49)
  %50 = getelementptr inbounds [500 x i8], [500 x i8]* %3, i64 0, i64 0
  %51 = getelementptr inbounds [500 x i8], [500 x i8]* %4, i64 0, i64 0
  %52 = call i32 @strcmp(i8* %50, i8* %51) #4
  %53 = icmp eq i32 %52, 0
  br i1 %53, label %54, label %57

54:                                               ; preds = %25
  %55 = getelementptr inbounds [500 x i8], [500 x i8]* %3, i64 0, i64 0
  %56 = call i32 @puts(i8* %55)
  br label %57

57:                                               ; preds = %54, %25
  br label %58

58:                                               ; preds = %57
  %59 = load i32, i32* %7, align 4
  %60 = add nsw i32 %59, 1
  store i32 %60, i32* %7, align 4
  br label %18

61:                                               ; preds = %18
  br label %62

62:                                               ; preds = %61
  %63 = load i32, i32* %6, align 4
  %64 = add nsw i32 %63, 1
  store i32 %64, i32* %6, align 4
  br label %13

65:                                               ; preds = %13
  ret i32 0
}

declare dso_local i32 @gets(...) #1

; Function Attrs: nounwind readonly
declare dso_local i64 @strlen(i8*) #2

; Function Attrs: nounwind
declare dso_local i8* @strncpy(i8*, i8*, i64) #3

; Function Attrs: nounwind readonly
declare dso_local i32 @strcmp(i8*, i8*) #2

declare dso_local i32 @puts(i8*) #1


!llvm.module.flags = !{!0}
!llvm.ident = !{!1}

!0 = !{i32 1, !"wchar_size", i32 4}
!1 = !{!"clang version 10.0.0-4ubuntu1 "}
